; Function Attrs: alwaysinline norecurse nounwind uwtable
define internal void @_ZNK4ncnn15Flatten_x86_fma12forward_int8ERKNS_3MatERS1_RKNS_6OptionE.omp_outlined(ptr noalias noundef readonly captures(none) %0, ptr noalias readnone captures(none) %1, ptr noundef nonnull readonly align 4 captures(none) dereferenceable(4) %2, ptr noundef nonnull readonly align 8 captures(none) dereferenceable(72) %3, ptr noundef nonnull readonly align 8 captures(none) dereferenceable(72) %4, ptr noundef nonnull readonly align 4 captures(none) dereferenceable(4) %5) #9 personality ptr @__gxx_personality_v0 {
  %7 = alloca i32, align 4
  %8 = alloca i32, align 4
  %9 = alloca i32, align 4
  %10 = alloca i32, align 4
  %11 = load i32, ptr %2, align 4, !tbaa !25
  %12 = icmp sgt i32 %11, 0
  br i1 %12, label %13, label %93

13:                                               ; preds = %6
  %14 = add nsw i32 %11, -1
  call void @llvm.lifetime.start.p0(i64 4, ptr nonnull %7) #6
  store i32 0, ptr %7, align 4, !tbaa !25
  call void @llvm.lifetime.start.p0(i64 4, ptr nonnull %8) #6
  store i32 %14, ptr %8, align 4, !tbaa !25
  call void @llvm.lifetime.start.p0(i64 4, ptr nonnull %9) #6
  store i32 1, ptr %9, align 4, !tbaa !25
  call void @llvm.lifetime.start.p0(i64 4, ptr nonnull %10) #6
  store i32 0, ptr %10, align 4, !tbaa !25
  %15 = load i32, ptr %0, align 4, !tbaa !25
  call void @__kmpc_for_static_init_4(ptr nonnull @1, i32 %15, i32 34, ptr nonnull %10, ptr nonnull %7, ptr nonnull %8, ptr nonnull %9, i32 1, i32 1)
  %16 = load i32, ptr %8, align 4, !tbaa !25
  %17 = call i32 @llvm.smin.i32(i32 %16, i32 %14)
  store i32 %17, ptr %8, align 4, !tbaa !25
  %18 = load i32, ptr %7, align 4, !tbaa !25
  %.not70 = icmp sgt i32 %18, %17
  br i1 %.not70, label %._crit_edge74, label %.lr.ph73

.lr.ph73:                                         ; preds = %13
  %19 = getelementptr inbounds nuw i8, ptr %3, i64 44
  %20 = getelementptr inbounds nuw i8, ptr %3, i64 16
  %21 = load i32, ptr %5, align 4, !tbaa !25
  %22 = icmp sgt i32 %21, 0
  br i1 %22, label %.lr.ph73.split.preheader, label %._crit_edge74

.lr.ph73.split.preheader:                         ; preds = %.lr.ph73
  %23 = sext i32 %18 to i64
  br label %.lr.ph73.split

.lr.ph73.split:                                   ; preds = %.lr.ph73.split.preheader, %._crit_edge
  %24 = phi i32 [ %17, %.lr.ph73.split.preheader ], [ %90, %._crit_edge ]
  %25 = phi i32 [ %21, %.lr.ph73.split.preheader ], [ %91, %._crit_edge ]
  %indvars.iv = phi i64 [ %23, %.lr.ph73.split.preheader ], [ %indvars.iv.next, %._crit_edge ]
  %26 = icmp sgt i32 %25, 0
  br i1 %26, label %.lr.ph.preheader, label %._crit_edge

.lr.ph.preheader:                                 ; preds = %.lr.ph73.split
  %27 = load ptr, ptr %4, align 8, !tbaa !17
  %28 = shl nsw i64 %indvars.iv, 3
  %29 = or disjoint i64 %28, 7
  %30 = zext nneg i32 %25 to i64
  %31 = mul nsw i64 %29, %30
  %32 = getelementptr inbounds i8, ptr %27, i64 %31
  %33 = or disjoint i64 %28, 6
  %34 = mul nsw i64 %33, %30
  %35 = getelementptr inbounds i8, ptr %27, i64 %34
  %36 = or disjoint i64 %28, 5
  %37 = mul nsw i64 %36, %30
  %38 = getelementptr inbounds i8, ptr %27, i64 %37
  %39 = or disjoint i64 %28, 4
  %40 = mul nsw i64 %39, %30
  %41 = getelementptr inbounds i8, ptr %27, i64 %40
  %42 = or disjoint i64 %28, 3
  %43 = mul nsw i64 %42, %30
  %44 = getelementptr inbounds i8, ptr %27, i64 %43
  %45 = or disjoint i64 %28, 2
  %46 = mul nsw i64 %45, %30
  %47 = getelementptr inbounds i8, ptr %27, i64 %46
  %48 = or disjoint i64 %28, 1
  %49 = mul nsw i64 %48, %30
  %50 = getelementptr inbounds i8, ptr %27, i64 %49
  %51 = trunc nsw i64 %indvars.iv to i32
  %52 = shl i32 %51, 3
  %53 = mul i32 %52, %25
  %54 = sext i32 %53 to i64
  %55 = getelementptr inbounds i8, ptr %27, i64 %54
  %56 = load ptr, ptr %3, align 8, !tbaa !17
  %57 = load i32, ptr %19, align 4, !tbaa !21
  %58 = sext i32 %57 to i64
  %59 = mul nsw i64 %indvars.iv, %58
  %60 = load i64, ptr %20, align 8, !tbaa !13
  %61 = mul i64 %59, %60
  %62 = getelementptr inbounds nuw i8, ptr %56, i64 %61
  br label %.lr.ph

.lr.ph:                                           ; preds = %.lr.ph.preheader, %.lr.ph
  %.069 = phi i32 [ %87, %.lr.ph ], [ 0, %.lr.ph.preheader ]
  %.05068 = phi ptr [ %85, %.lr.ph ], [ %32, %.lr.ph.preheader ]
  %.05167 = phi ptr [ %82, %.lr.ph ], [ %35, %.lr.ph.preheader ]
  %.05266 = phi ptr [ %79, %.lr.ph ], [ %38, %.lr.ph.preheader ]
  %.05365 = phi ptr [ %76, %.lr.ph ], [ %41, %.lr.ph.preheader ]
  %.05464 = phi ptr [ %73, %.lr.ph ], [ %44, %.lr.ph.preheader ]
  %.05563 = phi ptr [ %70, %.lr.ph ], [ %47, %.lr.ph.preheader ]
  %.05662 = phi ptr [ %67, %.lr.ph ], [ %50, %.lr.ph.preheader ]
  %.05761 = phi ptr [ %64, %.lr.ph ], [ %55, %.lr.ph.preheader ]
  %.05860 = phi ptr [ %86, %.lr.ph ], [ %62, %.lr.ph.preheader ]
  %63 = load i8, ptr %.05860, align 1, !tbaa !47
  %64 = getelementptr inbounds nuw i8, ptr %.05761, i64 1
  store i8 %63, ptr %.05761, align 1, !tbaa !47
  %65 = getelementptr inbounds nuw i8, ptr %.05860, i64 1
  %66 = load i8, ptr %65, align 1, !tbaa !47
  %67 = getelementptr inbounds nuw i8, ptr %.05662, i64 1
  store i8 %66, ptr %.05662, align 1, !tbaa !47
  %68 = getelementptr inbounds nuw i8, ptr %.05860, i64 2
  %69 = load i8, ptr %68, align 1, !tbaa !47
  %70 = getelementptr inbounds nuw i8, ptr %.05563, i64 1
  store i8 %69, ptr %.05563, align 1, !tbaa !47
  %71 = getelementptr inbounds nuw i8, ptr %.05860, i64 3
  %72 = load i8, ptr %71, align 1, !tbaa !47
  %73 = getelementptr inbounds nuw i8, ptr %.05464, i64 1
  store i8 %72, ptr %.05464, align 1, !tbaa !47
  %74 = getelementptr inbounds nuw i8, ptr %.05860, i64 4
  %75 = load i8, ptr %74, align 1, !tbaa !47
  %76 = getelementptr inbounds nuw i8, ptr %.05365, i64 1
  store i8 %75, ptr %.05365, align 1, !tbaa !47
  %77 = getelementptr inbounds nuw i8, ptr %.05860, i64 5
  %78 = load i8, ptr %77, align 1, !tbaa !47
  %79 = getelementptr inbounds nuw i8, ptr %.05266, i64 1
  store i8 %78, ptr %.05266, align 1, !tbaa !47
  %80 = getelementptr inbounds nuw i8, ptr %.05860, i64 6
  %81 = load i8, ptr %80, align 1, !tbaa !47
  %82 = getelementptr inbounds nuw i8, ptr %.05167, i64 1
  store i8 %81, ptr %.05167, align 1, !tbaa !47
  %83 = getelementptr inbounds nuw i8, ptr %.05860, i64 7
  %84 = load i8, ptr %83, align 1, !tbaa !47
  %85 = getelementptr inbounds nuw i8, ptr %.05068, i64 1
  store i8 %84, ptr %.05068, align 1, !tbaa !47
  %86 = getelementptr inbounds nuw i8, ptr %.05860, i64 8
  %87 = add nuw nsw i32 %.069, 1
  %88 = load i32, ptr %5, align 4, !tbaa !25
  %89 = icmp slt i32 %87, %88
  br i1 %89, label %.lr.ph, label %._crit_edge.loopexit, !llvm.loop !76

._crit_edge.loopexit:                             ; preds = %.lr.ph
  %.pre = load i32, ptr %8, align 4, !tbaa !25
  br label %._crit_edge

._crit_edge:                                      ; preds = %._crit_edge.loopexit, %.lr.ph73.split
  %90 = phi i32 [ %.pre, %._crit_edge.loopexit ], [ %24, %.lr.ph73.split ]
  %91 = phi i32 [ %88, %._crit_edge.loopexit ], [ %25, %.lr.ph73.split ]
  %indvars.iv.next = add nsw i64 %indvars.iv, 1
  %92 = sext i32 %90 to i64
  %.not.not = icmp slt i64 %indvars.iv, %92
  br i1 %.not.not, label %.lr.ph73.split, label %._crit_edge74, !llvm.loop !77

._crit_edge74:                                    ; preds = %._crit_edge, %.lr.ph73, %13
  call void @__kmpc_for_static_fini(ptr nonnull @1, i32 %15)
  call void @llvm.lifetime.end.p0(i64 4, ptr nonnull %10) #6
  call void @llvm.lifetime.end.p0(i64 4, ptr nonnull %9) #6
  call void @llvm.lifetime.end.p0(i64 4, ptr nonnull %8) #6
  call void @llvm.lifetime.end.p0(i64 4, ptr nonnull %7) #6
  br label %93

93:                                               ; preds = %._crit_edge74, %6
  ret void
}